target datalayout = "e-m:e-p270:32:32-p271:32:32-p272:64:64-i64:64-i128:128-f80:128-n8:16:32:64-S128"
target triple = "x86_64-pc-linux-gnu"

%struct.ossl_param_st = type { ptr, i32, ptr, i64, i64 }

@.str.53 = private unnamed_addr constant [31 x i8] c"../openssl/test/evp_kdf_test.c\00", align 1
@.str.67 = private unnamed_addr constant [2 x i8] c"0\00", align 1
@.str.68 = private unnamed_addr constant [4 x i8] c"out\00", align 1
@.str.69 = private unnamed_addr constant [9 x i8] c"expected\00", align 1
@.str.73 = private unnamed_addr constant [7 x i8] c"digest\00", align 1
@.str.80 = private unnamed_addr constant [4 x i8] c"key\00", align 1
@.str.120 = private unnamed_addr constant [47 x i8] c"EVP_KDF_derive(kctx, out, sizeof(out), params)\00", align 1
@.str.166 = private unnamed_addr constant [25 x i8] c"id-smime-alg-CMS3DESwrap\00", align 1
@test_kdf_x942_asn1.z = internal global [20 x i8] c"\00\01\02\03\04\05\06\07\08\09\0A\0B\0C\0D\0E\0F\10\11\12\13", align 16
@test_kdf_x942_asn1.expected = internal constant [24 x i8] c"\A0\96a9#v\F7\04M\90R\A3\97\882F\B6\7F_\1E\F6>\B5\FB", align 16
@.str.167 = private unnamed_addr constant [5 x i8] c"sha1\00", align 1
@.str.168 = private unnamed_addr constant [7 x i8] c"cekalg\00", align 1
@.str.169 = private unnamed_addr constant [49 x i8] c"kctx = get_kdfbyname(OSSL_KDF_NAME_X942KDF_ASN1)\00", align 1
@.str.170 = private unnamed_addr constant [13 x i8] c"X942KDF-ASN1\00", align 1

; Function Attrs: nounwind uwtable
define internal ptr @get_kdfbyname_libctx(ptr noundef %0, ptr noundef %1) #0 {
  %3 = alloca ptr, align 8
  %4 = alloca ptr, align 8
  %5 = alloca ptr, align 8
  %6 = alloca ptr, align 8
  store ptr %0, ptr %3, align 8, !tbaa !11
  store ptr %1, ptr %4, align 8, !tbaa !18
  call void @llvm.lifetime.start.p0(i64 8, ptr %5) #6
  %7 = load ptr, ptr %3, align 8, !tbaa !11
  %8 = load ptr, ptr %4, align 8, !tbaa !18
  %9 = call ptr @EVP_KDF_fetch(ptr noundef %7, ptr noundef %8, ptr noundef null)
  store ptr %9, ptr %5, align 8, !tbaa !26
  call void @llvm.lifetime.start.p0(i64 8, ptr %6) #6
  %10 = load ptr, ptr %5, align 8, !tbaa !26
  %11 = call ptr @EVP_KDF_CTX_new(ptr noundef %10)
  store ptr %11, ptr %6, align 8, !tbaa !8
  %12 = load ptr, ptr %5, align 8, !tbaa !26
  call void @EVP_KDF_free(ptr noundef %12)
  %13 = load ptr, ptr %6, align 8, !tbaa !8
  call void @llvm.lifetime.end.p0(i64 8, ptr %6) #6
  call void @llvm.lifetime.end.p0(i64 8, ptr %5) #6
  ret ptr %13
}

; Function Attrs: nounwind uwtable
define internal ptr @get_kdfbyname(ptr noundef %0) #0 {
  %2 = alloca ptr, align 8
  store ptr %0, ptr %2, align 8, !tbaa !18
  %3 = load ptr, ptr %2, align 8, !tbaa !18
  %4 = call ptr @get_kdfbyname_libctx(ptr noundef null, ptr noundef %3)
  ret ptr %4
}

; Function Attrs: nounwind uwtable
define internal i32 @test_kdf_x942_asn1() #0 {
  %1 = alloca i32, align 4
  %2 = alloca ptr, align 8
  %3 = alloca [4 x %struct.ossl_param_st], align 16
  %4 = alloca ptr, align 8
  %5 = alloca ptr, align 8
  %6 = alloca [24 x i8], align 16
  %7 = alloca %struct.ossl_param_st, align 8
  %8 = alloca %struct.ossl_param_st, align 8
  %9 = alloca %struct.ossl_param_st, align 8
  %10 = alloca %struct.ossl_param_st, align 8
  call void @llvm.lifetime.start.p0(i64 4, ptr %1) #6
  call void @llvm.lifetime.start.p0(i64 8, ptr %2) #6
  store ptr null, ptr %2, align 8, !tbaa !8
  call void @llvm.lifetime.start.p0(i64 160, ptr %3) #6
  call void @llvm.lifetime.start.p0(i64 8, ptr %4) #6
  %11 = getelementptr inbounds [4 x %struct.ossl_param_st], ptr %3, i64 0, i64 0
  store ptr %11, ptr %4, align 8, !tbaa !13
  call void @llvm.lifetime.start.p0(i64 8, ptr %5) #6
  store ptr @.str.166, ptr %5, align 8, !tbaa !18
  call void @llvm.lifetime.start.p0(i64 24, ptr %6) #6
  %12 = load ptr, ptr %4, align 8, !tbaa !13
  %13 = getelementptr inbounds nuw %struct.ossl_param_st, ptr %12, i32 1
  store ptr %13, ptr %4, align 8, !tbaa !13
  call void @llvm.lifetime.start.p0(i64 40, ptr %7) #6
  call void @OSSL_PARAM_construct_utf8_string(ptr dead_on_unwind writable sret(%struct.ossl_param_st) align 8 %7, ptr noundef @.str.73, ptr noundef @.str.167, i64 noundef 0)
  call void @llvm.memcpy.p0.p0.i64(ptr align 8 %12, ptr align 8 %7, i64 40, i1 false), !tbaa.struct !17
  call void @llvm.lifetime.end.p0(i64 40, ptr %7) #6
  %14 = load ptr, ptr %4, align 8, !tbaa !13
  %15 = getelementptr inbounds nuw %struct.ossl_param_st, ptr %14, i32 1
  store ptr %15, ptr %4, align 8, !tbaa !13
  call void @llvm.lifetime.start.p0(i64 40, ptr %8) #6
  call void @OSSL_PARAM_construct_octet_string(ptr dead_on_unwind writable sret(%struct.ossl_param_st) align 8 %8, ptr noundef @.str.80, ptr noundef @test_kdf_x942_asn1.z, i64 noundef 20)
  call void @llvm.memcpy.p0.p0.i64(ptr align 8 %14, ptr align 8 %8, i64 40, i1 false), !tbaa.struct !17
  call void @llvm.lifetime.end.p0(i64 40, ptr %8) #6
  %16 = load ptr, ptr %4, align 8, !tbaa !13
  %17 = getelementptr inbounds nuw %struct.ossl_param_st, ptr %16, i32 1
  store ptr %17, ptr %4, align 8, !tbaa !13
  call void @llvm.lifetime.start.p0(i64 40, ptr %9) #6
  %18 = load ptr, ptr %5, align 8, !tbaa !18
  call void @OSSL_PARAM_construct_utf8_string(ptr dead_on_unwind writable sret(%struct.ossl_param_st) align 8 %9, ptr noundef @.str.168, ptr noundef %18, i64 noundef 0)
  call void @llvm.memcpy.p0.p0.i64(ptr align 8 %16, ptr align 8 %9, i64 40, i1 false), !tbaa.struct !17
  call void @llvm.lifetime.end.p0(i64 40, ptr %9) #6
  %19 = load ptr, ptr %4, align 8, !tbaa !13
  call void @llvm.lifetime.start.p0(i64 40, ptr %10) #6
  call void @OSSL_PARAM_construct_end(ptr dead_on_unwind writable sret(%struct.ossl_param_st) align 8 %10)
  call void @llvm.memcpy.p0.p0.i64(ptr align 8 %19, ptr align 8 %10, i64 40, i1 false), !tbaa.struct !17
  call void @llvm.lifetime.end.p0(i64 40, ptr %10) #6
  %20 = call ptr @get_kdfbyname(ptr noundef @.str.170)
  store ptr %20, ptr %2, align 8, !tbaa !8
  %21 = call i32 @test_ptr(ptr noundef @.str.53, i32 noundef 1823, ptr noundef @.str.169, ptr noundef %20)
  %22 = icmp ne i32 %21, 0
  br i1 %22, label %23, label %34

23:                                               ; preds = %0
  %24 = load ptr, ptr %2, align 8, !tbaa !8
  %25 = getelementptr inbounds [24 x i8], ptr %6, i64 0, i64 0
  %26 = getelementptr inbounds [4 x %struct.ossl_param_st], ptr %3, i64 0, i64 0
  %27 = call i32 @EVP_KDF_derive(ptr noundef %24, ptr noundef %25, i64 noundef 24, ptr noundef %26)
  %28 = call i32 @test_int_gt(ptr noundef @.str.53, i32 noundef 1824, ptr noundef @.str.120, ptr noundef @.str.67, i32 noundef %27, i32 noundef 0)
  %29 = icmp ne i32 %28, 0
  br i1 %29, label %30, label %34

30:                                               ; preds = %23
  %31 = getelementptr inbounds [24 x i8], ptr %6, i64 0, i64 0
  %32 = call i32 @test_mem_eq(ptr noundef @.str.53, i32 noundef 1825, ptr noundef @.str.68, ptr noundef @.str.69, ptr noundef %31, i64 noundef 24, ptr noundef @test_kdf_x942_asn1.expected, i64 noundef 24)
  %33 = icmp ne i32 %32, 0
  br label %34

34:                                               ; preds = %30, %23, %0
  %35 = phi i1 [ false, %23 ], [ false, %0 ], [ %33, %30 ]
  %36 = zext i1 %35 to i32
  store i32 %36, ptr %1, align 4, !tbaa !4
  %37 = load ptr, ptr %2, align 8, !tbaa !8
  call void @EVP_KDF_CTX_free(ptr noundef %37)
  %38 = load i32, ptr %1, align 4, !tbaa !4
  call void @llvm.lifetime.end.p0(i64 24, ptr %6) #6
  call void @llvm.lifetime.end.p0(i64 8, ptr %5) #6
  call void @llvm.lifetime.end.p0(i64 8, ptr %4) #6
  call void @llvm.lifetime.end.p0(i64 160, ptr %3) #6
  call void @llvm.lifetime.end.p0(i64 8, ptr %2) #6
  call void @llvm.lifetime.end.p0(i64 4, ptr %1) #6
  ret i32 %38
}